; Function Attrs: mustprogress nounwind uwtable
define internal void @_ZN4llvm2cl3optIN12_GLOBAL__N_118X86AlignBranchKindELb1ENS0_6parserINSt7__cxx1112basic_stringIcSt11char_traitsIcESaIcEEEEEED0Ev(ptr noundef nonnull align 8 dereferenceable(184) %0) unnamed_addr #0 align 2 {
  store ptr getelementptr inbounds inrange(-16, 88) (i8, ptr @_ZTVN4llvm2cl3optIN12_GLOBAL__N_118X86AlignBranchKindELb1ENS0_6parserINSt7__cxx1112basic_stringIcSt11char_traitsIcESaIcEEEEEEE, i64 16), ptr %0, align 8
  %2 = getelementptr inbounds i8, ptr %0, i64 168
  %3 = load ptr, ptr %2, align 8
  %.not.i.i.i = icmp eq ptr %3, null
  br i1 %.not.i.i.i, label %_ZNSt8functionIFvRKNSt7__cxx1112basic_stringIcSt11char_traitsIcESaIcEEEEED2Ev.exit.i, label %4

4:                                                ; preds = %1
  %5 = getelementptr inbounds nuw i8, ptr %0, i64 152
  %6 = tail call noundef zeroext i1 %3(ptr noundef nonnull align 8 dereferenceable(16) %5, ptr noundef nonnull align 8 dereferenceable(16) %5, i32 noundef 3) #23
  br label %_ZNSt8functionIFvRKNSt7__cxx1112basic_stringIcSt11char_traitsIcESaIcEEEEED2Ev.exit.i

_ZNSt8functionIFvRKNSt7__cxx1112basic_stringIcSt11char_traitsIcESaIcEEEEED2Ev.exit.i: ; preds = %4, %1
  store ptr getelementptr inbounds inrange(-16, 88) (i8, ptr @_ZTVN4llvm2cl6OptionE, i64 16), ptr %0, align 8
  %7 = getelementptr inbounds nuw i8, ptr %0, i64 88
  %8 = getelementptr inbounds i8, ptr %0, i64 96
  %9 = load ptr, ptr %8, align 8
  %10 = load ptr, ptr %7, align 8
  %11 = icmp eq ptr %9, %10
  br i1 %11, label %_ZN4llvm11SmallPtrSetIPNS_2cl10SubCommandELj1EED2Ev.exit.i.i, label %12

12:                                               ; preds = %_ZNSt8functionIFvRKNSt7__cxx1112basic_stringIcSt11char_traitsIcESaIcEEEEED2Ev.exit.i
  tail call void @free(ptr noundef %9) #23
  br label %_ZN4llvm11SmallPtrSetIPNS_2cl10SubCommandELj1EED2Ev.exit.i.i

_ZN4llvm11SmallPtrSetIPNS_2cl10SubCommandELj1EED2Ev.exit.i.i: ; preds = %12, %_ZNSt8functionIFvRKNSt7__cxx1112basic_stringIcSt11char_traitsIcESaIcEEEEED2Ev.exit.i
  %13 = getelementptr inbounds nuw i8, ptr %0, i64 64
  %14 = tail call noundef i64 @_ZNK4llvm15SmallVectorBaseIjE4sizeEv(ptr noundef nonnull align 8 dereferenceable(16) %13) #23
  %15 = load ptr, ptr %13, align 8
  %16 = getelementptr inbounds i8, ptr %0, i64 80
  %17 = icmp eq ptr %15, %16
  br i1 %17, label %_ZN4llvm2cl3optIN12_GLOBAL__N_118X86AlignBranchKindELb1ENS0_6parserINSt7__cxx1112basic_stringIcSt11char_traitsIcESaIcEEEEEED2Ev.exit, label %18

18:                                               ; preds = %_ZN4llvm11SmallPtrSetIPNS_2cl10SubCommandELj1EED2Ev.exit.i.i
  tail call void @free(ptr noundef %15) #23
  br label %_ZN4llvm2cl3optIN12_GLOBAL__N_118X86AlignBranchKindELb1ENS0_6parserINSt7__cxx1112basic_stringIcSt11char_traitsIcESaIcEEEEEED2Ev.exit

_ZN4llvm2cl3optIN12_GLOBAL__N_118X86AlignBranchKindELb1ENS0_6parserINSt7__cxx1112basic_stringIcSt11char_traitsIcESaIcEEEEEED2Ev.exit: ; preds = %_ZN4llvm11SmallPtrSetIPNS_2cl10SubCommandELj1EED2Ev.exit.i.i, %18
  tail call void @_ZdlPvm(ptr noundef nonnull %0, i64 noundef 184) #26
  ret void
}